Certificate:
    Data:
        Version: 3 (0x2)
        Serial Number: 4096 (0x1000)
    Signature Algorithm: sha256WithRSAEncryption
        Issuer: C=UK, ST=Gloucestershire, L=Bristol, O=Jacob, OU=Jacob, CN=Jacob/emailAddress=madeupemailaddress@fake.com
        Validity
            Not Before: Apr 14 13:28:43 2020 GMT
            Not After : Apr 14 13:28:43 2021 GMT
        Subject: C=UK, ST=Gloucestershire, O=Jacob, OU=Jacob, CN=jwilliams.com/emailAddress=madeupemailaddress@definitelyreal.com
        Subject Public Key Info:
            Public Key Algorithm: rsaEncryption
                Public-Key: (2048 bit)
                Modulus:
                    00:b3:13:26:2c:11:26:73:63:68:d2:b3:fa:4d:1d:
                    b1:5c:50:64:0d:64:4f:66:95:49:38:3c:65:ff:0e:
                    c9:26:e2:ba:c6:c5:ec:5c:2c:7c:33:8a:97:5c:07:
                    f7:94:0d:18:11:a9:22:66:46:df:3a:43:a4:cd:d0:
                    2c:e7:d5:67:eb:a7:5e:0a:00:ce:c3:93:fe:f2:2c:
                    0b:18:46:f3:b4:04:67:e5:0a:3e:b5:52:47:04:00:
                    58:fb:ee:23:da:47:95:b0:52:db:6e:f3:07:43:46:
                    fc:ed:76:18:80:87:1a:3f:98:f1:d2:05:58:78:ec:
                    86:86:21:1a:5d:20:f4:f6:5e:0a:f0:55:f2:80:b8:
                    fb:53:bc:b9:27:c4:e9:54:b5:e2:8c:a5:bd:14:96:
                    19:5d:dc:32:bf:8b:e6:14:18:62:24:28:36:04:a3:
                    f4:e7:3b:e4:26:9e:a7:ac:d3:40:a0:93:4b:bf:27:
                    dd:a0:47:e2:3c:5b:f6:dc:d7:38:f7:81:63:84:f4:
                    1c:eb:04:7c:19:8e:2f:b2:9a:20:4e:70:e5:f5:2a:
                    43:45:35:4a:b3:30:fc:78:dd:be:ed:b0:40:6b:03:
                    c8:82:7f:57:85:cc:8f:35:cd:db:27:56:6e:fe:f3:
                    2d:c6:e5:9a:e6:84:35:fb:7d:73:ef:c1:08:8f:c0:
                    5c:6b
                Exponent: 65537 (0x10001)
        X509v3 extensions:
            X509v3 Basic Constraints: 
                CA:FALSE
            Netscape Comment: 
                OpenSSL Generated Certificate
            X509v3 Subject Key Identifier: 
                93:DE:57:2E:56:28:5E:70:20:6B:B7:80:8F:4D:BC:3B:23:DA:3F:10
            X509v3 Authority Key Identifier: 
                keyid:C0:DE:17:4A:77:3A:96:E6:93:D0:B2:01:2A:2F:81:FB:C2:1A:65:6D

    Signature Algorithm: sha256WithRSAEncryption
         29:4c:91:72:3d:3a:38:32:68:65:30:88:2d:bb:be:b1:4e:48:
         f0:9b:07:4b:df:10:16:4b:4d:0d:54:7d:c1:53:93:04:8e:00:
         22:e0:ac:10:6e:6d:0d:42:23:81:a7:17:75:d6:72:af:c8:7b:
         69:b5:e3:63:c6:ac:1a:52:92:94:e9:5f:e7:ea:73:10:01:f2:
         df:fa:e3:04:62:62:0a:e0:b7:00:26:46:06:a1:2e:36:19:4c:
         3f:1f:0a:49:ec:2a:78:16:39:59:f1:ee:36:8b:94:aa:72:e7:
         36:a2:c4:07:b3:7d:4a:a6:ae:cd:3c:c1:9b:f8:15:57:15:d7:
         d1:88:2c:1b:e5:c0:4f:2e:98:ee:07:f2:7c:4e:0f:89:35:7f:
         3a:d7:1c:4b:67:65:91:d9:ee:f3:5a:0a:25:a8:b1:a1:bc:35:
         26:ea:78:b3:f2:16:db:4b:e8:0a:21:f2:03:c8:eb:fd:34:46:
         2b:38:1e:57:f2:77:1f:85:b7:1e:f7:50:54:a3:c1:fe:90:a6:
         2f:79:5d:9c:52:6a:82:1d:68:0a:8c:3e:98:df:72:69:8b:20:
         1f:4b:4b:92:0e:05:7a:2a:ed:31:f4:af:a3:6c:35:49:89:52:
         e7:9f:06:9f:f8:15:6d:68:95:06:79:4c:eb:eb:2e:4f:6b:f7:
         f6:b1:81:0c
-----BEGIN CERTIFICATE-----
MIIEIzCCAwugAwIBAgICEAAwDQYJKoZIhvcNAQELBQAwgZUxCzAJBgNVBAYTAlVL
MRgwFgYDVQQIDA9HbG91Y2VzdGVyc2hpcmUxEDAOBgNVBAcMB0JyaXN0b2wxDjAM
BgNVBAoMBUphY29iMQ4wDAYDVQQLDAVKYWNvYjEOMAwGA1UEAwwFSmFjb2IxKjAo
BgkqhkiG9w0BCQEWG21hZGV1cGVtYWlsYWRkcmVzc0BmYWtlLmNvbTAeFw0yMDA0
MTQxMzI4NDNaFw0yMTA0MTQxMzI4NDNaMIGVMQswCQYDVQQGEwJVSzEYMBYGA1UE
CAwPR2xvdWNlc3RlcnNoaXJlMQ4wDAYDVQQKDAVKYWNvYjEOMAwGA1UECwwFSmFj
b2IxFjAUBgNVBAMMDWp3aWxsaWFtcy5jb20xNDAyBgkqhkiG9w0BCQEWJW1hZGV1
cGVtYWlsYWRkcmVzc0BkZWZpbml0ZWx5cmVhbC5jb20wggEiMA0GCSqGSIb3DQEB
AQUAA4IBDwAwggEKAoIBAQCzEyYsESZzY2jSs/pNHbFcUGQNZE9mlUk4PGX/Dskm
4rrGxexcLHwzipdcB/eUDRgRqSJmRt86Q6TN0Czn1Wfrp14KAM7Dk/7yLAsYRvO0
BGflCj61UkcEAFj77iPaR5WwUttu8wdDRvztdhiAhxo/mPHSBVh47IaGIRpdIPT2
XgrwVfKAuPtTvLknxOlUteKMpb0Ulhld3DK/i+YUGGIkKDYEo/TnO+Qmnqes00Cg
k0u/J92gR+I8W/bc1zj3gWOE9BzrBHwZji+ymiBOcOX1KkNFNUqzMPx43b7tsEBr
A8iCf1eFzI81zdsnVm7+8y3G5ZrmhDX7fXPvwQiPwFxrAgMBAAGjezB5MAkGA1Ud
EwQCMAAwLAYJYIZIAYb4QgENBB8WHU9wZW5TU0wgR2VuZXJhdGVkIENlcnRpZmlj
YXRlMB0GA1UdDgQWBBST3lcuVihecCBrt4CPTbw7I9o/EDAfBgNVHSMEGDAWgBTA
3hdKdzqW5pPQsgEqL4H7whplbTANBgkqhkiG9w0BAQsFAAOCAQEAKUyRcj06ODJo
ZTCILbu+sU5I8JsHS98QFktNDVR9wVOTBI4AIuCsEG5tDUIjgacXddZyr8h7abXj
Y8asGlKSlOlf5+pzEAHy3/rjBGJiCuC3ACZGBqEuNhlMPx8KSewqeBY5WfHuNouU
qnLnNqLEB7N9SqauzTzBm/gVVxXX0YgsG+XATy6Y7gfyfE4PiTV/OtccS2dlkdnu
81oKJaixobw1Jup4s/IW20voCiHyA8jr/TRGKzgeV/J3H4W3HvdQVKPB/pCmL3ld
nFJqgh1oCow+mN9yaYsgH0tLkg4FeirtMfSvo2w1SYlS558Gn/gVbWiVBnlM6+su
T2v39rGBDA==
-----END CERTIFICATE-----
